target datalayout = "e-m:e-p270:32:32-p271:32:32-p272:64:64-i64:64-i128:128-f80:128-n8:16:32:64-S128"
target triple = "x86_64-pc-linux-gnu"

%struct.redisServer = type { i32, i64, ptr, ptr, ptr, i32, i32, i32, i32, i32, ptr, ptr, ptr, ptr, ptr, i32, i32, i32, i32, i64, i32, i32, i32, i32, ptr, i32, i32, [41 x i8], i32, i64, i32, i32, i32, ptr, ptr, i32, i32, i64, ptr, ptr, ptr, ptr, [2 x i32], i32, i32, i32, i32, i32, i32, [16 x ptr], i32, ptr, ptr, i32, [8 x %struct.connListener], i32, %struct.connListener, ptr, ptr, ptr, ptr, ptr, ptr, ptr, ptr, ptr, ptr, i32, ptr, i32, ptr, [3 x %struct.pause_event], [256 x i8], ptr, i64, i32, i32, [128 x i32], i32, i32, i64, i32, i32, i32, i32, i32, i64, i64, i64, i64, i64, i64, i64, i64, i64, i64, double, i64, i64, i64, i64, i64, i64, i64, i64, i64, i64, i64, i64, i64, i64, i64, i64, i64, i64, i64, i64, i64, double, i64, i64, i64, i64, i64, ptr, i64, i64, i64, %struct.malloc_stats, i64, i64, i64, i64, i64, i64, i64, i64, i64, i64, i64, i64, double, [4 x i64], i64, i64, i64, i64, [128 x i64], [128 x i64], i64, i64, [7 x %struct.anon], i64, i64, i64, i64, i64, i64, [4 x %struct.durationStats], i32, i32, i32, i32, i32, i32, i32, i32, i32, i32, i32, i32, i64, i32, i32, i32, i32, i64, i64, i32, i32, i32, i32, i32, ptr, [3 x %struct.clientBufferLimitsConfig], i32, i32, i32, ptr, i32, i32, i32, i32, i32, i32, ptr, ptr, i32, i32, i64, i64, i64, i64, i64, i32, i32, ptr, i32, i32, i64, i64, i64, i64, i64, i32, i32, i64, i32, i32, i32, i32, i32, i32, i32, i32, ptr, i32, i64, i64, i64, i64, i32, ptr, i32, ptr, i32, i32, i32, i64, i64, i64, i64, i32, i32, i32, i32, i32, i32, ptr, i32, i32, ptr, i32, i32, i32, [2 x i32], i32, %struct.redisOpArray, i32, ptr, i32, ptr, i32, i32, i32, i32, i32, i32, i32, [41 x i8], [41 x i8], i64, i64, i64, i64, i32, i32, ptr, i64, i64, %struct.replDataBuf, i64, i64, i32, i32, i32, i32, i32, i32, i32, i32, i32, i64, ptr, i64, ptr, ptr, ptr, i32, i32, ptr, ptr, i32, i32, i32, i64, i64, i64, i64, ptr, ptr, i32, ptr, i64, i32, i32, i32, i64, i32, i32, i32, i32, ptr, i32, i32, [41 x i8], i64, i32, ptr, i32, i32, i64, i64, i32, i32, i32, i32, i32, i64, [3 x i32], i32, i32, i32, [10 x i32], ptr, ptr, i32, i64, ptr, ptr, i32, i32, i32, i32, i64, i64, i64, i64, i64, i64, i64, i64, i64, i64, i32, i32, i64, i64, i32, i64, i64, i64, i64, i64, ptr, ptr, i32, ptr, i32, i32, i32, i32, i64, i64, ptr, ptr, i32, i32, i32, i32, i32, ptr, ptr, ptr, i32, i32, i32, i32, i32, i32, i32, i64, i32, i32, i64, i32, i32, i32, i32, i32, i32, i32, i64, ptr, ptr, i64, ptr, i32, %struct.aclInfo, i32, i64, i32, i32, i32, %struct.redisTLSContextConfig, ptr, ptr, ptr, ptr, ptr, i64, i32, ptr, i32, i32, i32, i64, i32, ptr }
%struct.connListener = type { [16 x i32], i32, ptr, i32, i32, ptr, ptr }
%struct.pause_event = type { i32, i64 }
%struct.malloc_stats = type { i64, i64, i64, i64, i64, i64, i64, i64, i64, i64, i64 }
%struct.anon = type { i64, i64, [16 x i64], i32 }
%struct.durationStats = type { i64, i64, i64 }
%struct.clientBufferLimitsConfig = type { i64, i64, i64 }
%struct.redisOpArray = type { ptr, i32, i32 }
%struct.replDataBuf = type { ptr, i64, i64, i64, i64 }
%struct.aclInfo = type { i64, i64, i64, i64 }
%struct.redisTLSContextConfig = type { ptr, ptr, ptr, ptr, ptr, ptr, ptr, ptr, ptr, ptr, ptr, ptr, i32, i32, i32, i32 }
%struct.aofInfo = type { ptr, i64, i32, i64, i64 }
%struct.aofManifest = type { ptr, ptr, ptr, i64, i64, i32 }

@.str.1 = private unnamed_addr constant [6 x i8] c"aof.c\00", align 1
@server = external global %struct.redisServer, align 8
@.str.15 = private unnamed_addr constant [11 x i8] c"am != NULL\00", align 1
@.str.35 = private unnamed_addr constant [51 x i8] c"am->base_aof_info->file_type == AOF_FILE_TYPE_BASE\00", align 1
@.str.36 = private unnamed_addr constant [5 x i8] c".rdb\00", align 1
@.str.37 = private unnamed_addr constant [5 x i8] c".aof\00", align 1
@.str.38 = private unnamed_addr constant [12 x i8] c"%s.%lld%s%s\00", align 1
@.str.39 = private unnamed_addr constant [6 x i8] c".base\00", align 1

; Function Attrs: nounwind uwtable
define dso_local ptr @aofInfoCreate() #0 {
  %1 = alloca ptr, align 8
  call void @llvm.lifetime.start.p0(i64 8, ptr %1) #12
  %2 = call noalias ptr @zcalloc(i64 noundef 40) #13
  store ptr %2, ptr %1, align 8, !tbaa !5
  %3 = load ptr, ptr %1, align 8, !tbaa !5
  %4 = getelementptr inbounds nuw %struct.aofInfo, ptr %3, i32 0, i32 3
  store i64 -1, ptr %4, align 8, !tbaa !9
  %5 = load ptr, ptr %1, align 8, !tbaa !5
  %6 = getelementptr inbounds nuw %struct.aofInfo, ptr %5, i32 0, i32 4
  store i64 -1, ptr %6, align 8, !tbaa !14
  %7 = load ptr, ptr %1, align 8, !tbaa !5
  call void @llvm.lifetime.end.p0(i64 8, ptr %1) #12
  ret ptr %7
}

; Function Attrs: nounwind uwtable
define dso_local ptr @getNewBaseFileNameAndMarkPreAsHistory(ptr noundef %0) #0 {
  %2 = alloca ptr, align 8
  %3 = alloca ptr, align 8
  %4 = alloca ptr, align 8
  store ptr %0, ptr %2, align 8, !tbaa !5
  %5 = load ptr, ptr %2, align 8, !tbaa !5
  %6 = icmp ne ptr %5, null
  %7 = xor i1 %6, true
  %8 = xor i1 %7, true
  %9 = zext i1 %8 to i32
  %10 = sext i32 %9 to i64
  %11 = call i64 @llvm.expect.i64(i64 %10, i64 1)
  %12 = icmp ne i64 %11, 0
  br i1 %12, label %13, label %14

13:                                               ; preds = %1
  br label %16

14:                                               ; preds = %1
  call void @_serverAssert(ptr noundef @.str.15, ptr noundef @.str.1, i32 noundef 436)
  call void @abort() #14
  unreachable

15:                                               ; No predecessors!
  br label %16

16:                                               ; preds = %15, %13
  %17 = load ptr, ptr %2, align 8, !tbaa !5
  %18 = getelementptr inbounds nuw %struct.aofManifest, ptr %17, i32 0, i32 0
  %19 = load ptr, ptr %18, align 8, !tbaa !33
  %20 = icmp ne ptr %19, null
  br i1 %20, label %21, label %49

21:                                               ; preds = %16
  %22 = load ptr, ptr %2, align 8, !tbaa !5
  %23 = getelementptr inbounds nuw %struct.aofManifest, ptr %22, i32 0, i32 0
  %24 = load ptr, ptr %23, align 8, !tbaa !33
  %25 = getelementptr inbounds nuw %struct.aofInfo, ptr %24, i32 0, i32 2
  %26 = load i32, ptr %25, align 8, !tbaa !17
  %27 = icmp eq i32 %26, 98
  %28 = xor i1 %27, true
  %29 = xor i1 %28, true
  %30 = zext i1 %29 to i32
  %31 = sext i32 %30 to i64
  %32 = call i64 @llvm.expect.i64(i64 %31, i64 1)
  %33 = icmp ne i64 %32, 0
  br i1 %33, label %34, label %35

34:                                               ; preds = %21
  br label %37

35:                                               ; preds = %21
  call void @_serverAssert(ptr noundef @.str.35, ptr noundef @.str.1, i32 noundef 438)
  call void @abort() #14
  unreachable

36:                                               ; No predecessors!
  br label %37

37:                                               ; preds = %36, %34
  %38 = load ptr, ptr %2, align 8, !tbaa !5
  %39 = getelementptr inbounds nuw %struct.aofManifest, ptr %38, i32 0, i32 0
  %40 = load ptr, ptr %39, align 8, !tbaa !33
  %41 = getelementptr inbounds nuw %struct.aofInfo, ptr %40, i32 0, i32 2
  store i32 104, ptr %41, align 8, !tbaa !17
  %42 = load ptr, ptr %2, align 8, !tbaa !5
  %43 = getelementptr inbounds nuw %struct.aofManifest, ptr %42, i32 0, i32 2
  %44 = load ptr, ptr %43, align 8, !tbaa !28
  %45 = load ptr, ptr %2, align 8, !tbaa !5
  %46 = getelementptr inbounds nuw %struct.aofManifest, ptr %45, i32 0, i32 0
  %47 = load ptr, ptr %46, align 8, !tbaa !33
  %48 = call ptr @listAddNodeHead(ptr noundef %44, ptr noundef %47)
  br label %49

49:                                               ; preds = %37, %16
  call void @llvm.lifetime.start.p0(i64 8, ptr %3) #12
  %50 = load i32, ptr getelementptr inbounds nuw (%struct.redisServer, ptr @server, i32 0, i32 222), align 4, !tbaa !76
  %51 = icmp ne i32 %50, 0
  %52 = select i1 %51, ptr @.str.36, ptr @.str.37
  store ptr %52, ptr %3, align 8, !tbaa !18
  call void @llvm.lifetime.start.p0(i64 8, ptr %4) #12
  %53 = call ptr @aofInfoCreate()
  store ptr %53, ptr %4, align 8, !tbaa !5
  %54 = call ptr @sdsempty()
  %55 = load ptr, ptr getelementptr inbounds nuw (%struct.redisServer, ptr @server, i32 0, i32 195), align 8, !tbaa !34
  %56 = load ptr, ptr %2, align 8, !tbaa !5
  %57 = getelementptr inbounds nuw %struct.aofManifest, ptr %56, i32 0, i32 3
  %58 = load i64, ptr %57, align 8, !tbaa !73
  %59 = add nsw i64 %58, 1
  store i64 %59, ptr %57, align 8, !tbaa !73
  %60 = load ptr, ptr %3, align 8, !tbaa !18
  %61 = call ptr (ptr, ptr, ...) @sdscatprintf(ptr noundef %54, ptr noundef @.str.38, ptr noundef %55, i64 noundef %59, ptr noundef @.str.39, ptr noundef %60)
  %62 = load ptr, ptr %4, align 8, !tbaa !5
  %63 = getelementptr inbounds nuw %struct.aofInfo, ptr %62, i32 0, i32 0
  store ptr %61, ptr %63, align 8, !tbaa !15
  %64 = load ptr, ptr %2, align 8, !tbaa !5
  %65 = getelementptr inbounds nuw %struct.aofManifest, ptr %64, i32 0, i32 3
  %66 = load i64, ptr %65, align 8, !tbaa !73
  %67 = load ptr, ptr %4, align 8, !tbaa !5
  %68 = getelementptr inbounds nuw %struct.aofInfo, ptr %67, i32 0, i32 1
  store i64 %66, ptr %68, align 8, !tbaa !16
  %69 = load ptr, ptr %4, align 8, !tbaa !5
  %70 = getelementptr inbounds nuw %struct.aofInfo, ptr %69, i32 0, i32 2
  store i32 98, ptr %70, align 8, !tbaa !17
  %71 = load ptr, ptr %4, align 8, !tbaa !5
  %72 = load ptr, ptr %2, align 8, !tbaa !5
  %73 = getelementptr inbounds nuw %struct.aofManifest, ptr %72, i32 0, i32 0
  store ptr %71, ptr %73, align 8, !tbaa !33
  %74 = load ptr, ptr %2, align 8, !tbaa !5
  %75 = getelementptr inbounds nuw %struct.aofManifest, ptr %74, i32 0, i32 5
  store i32 1, ptr %75, align 8, !tbaa !75
  %76 = load ptr, ptr %2, align 8, !tbaa !5
  %77 = getelementptr inbounds nuw %struct.aofManifest, ptr %76, i32 0, i32 0
  %78 = load ptr, ptr %77, align 8, !tbaa !33
  %79 = getelementptr inbounds nuw %struct.aofInfo, ptr %78, i32 0, i32 0
  %80 = load ptr, ptr %79, align 8, !tbaa !15
  call void @llvm.lifetime.end.p0(i64 8, ptr %4) #12
  call void @llvm.lifetime.end.p0(i64 8, ptr %3) #12
  ret ptr %80
}