; Function Attrs: nounwind uwtable
define dso_local ptr @getNewBaseFileNameAndMarkPreAsHistory(ptr noundef captures(address_is_null) %0) local_unnamed_addr #0 {
  %.not = icmp eq ptr %0, null
  br i1 %.not, label %2, label %3, !prof !5

2:                                                ; preds = %1
  tail call void @_serverAssert(ptr noundef nonnull @.str.15, ptr noundef nonnull @.str.1, i32 noundef 436) #20
  tail call void @abort() #21
  unreachable

3:                                                ; preds = %1
  %4 = load ptr, ptr %0, align 8, !tbaa !32
  %.not17 = icmp eq ptr %4, null
  br i1 %.not17, label %14, label %5

5:                                                ; preds = %3
  %6 = getelementptr inbounds nuw i8, ptr %4, i64 16
  %7 = load i32, ptr %6, align 8, !tbaa !15
  %8 = icmp eq i32 %7, 98
  br i1 %8, label %10, label %9, !prof !71

9:                                                ; preds = %5
  tail call void @_serverAssert(ptr noundef nonnull @.str.35, ptr noundef nonnull @.str.1, i32 noundef 438) #20
  tail call void @abort() #21
  unreachable

10:                                               ; preds = %5
  store i32 104, ptr %6, align 8, !tbaa !15
  %11 = getelementptr inbounds nuw i8, ptr %0, i64 16
  %12 = load ptr, ptr %11, align 8, !tbaa !27
  %13 = tail call ptr @listAddNodeHead(ptr noundef %12, ptr noundef nonnull %4) #20
  br label %14

14:                                               ; preds = %10, %3
  %15 = load i32, ptr getelementptr inbounds nuw (i8, ptr @server, i64 6692), align 4, !tbaa !72
  %.not18 = icmp eq i32 %15, 0
  %16 = select i1 %.not18, ptr @.str.37, ptr @.str.36
  %17 = tail call noalias noundef dereferenceable_or_null(40) ptr @zcalloc(i64 noundef 40) #19
  %18 = getelementptr inbounds nuw i8, ptr %17, i64 24
  tail call void @llvm.memset.p0.i64(ptr noundef nonnull align 8 dereferenceable(16) %18, i8 -1, i64 16, i1 false)
  %19 = tail call ptr @sdsempty() #20
  %20 = load ptr, ptr getelementptr inbounds nuw (i8, ptr @server, i64 6528), align 8, !tbaa !33
  %21 = getelementptr inbounds nuw i8, ptr %0, i64 24
  %22 = load i64, ptr %21, align 8, !tbaa !68
  %23 = add nsw i64 %22, 1
  store i64 %23, ptr %21, align 8, !tbaa !68
  %24 = tail call ptr (ptr, ptr, ...) @sdscatprintf(ptr noundef %19, ptr noundef nonnull @.str.38, ptr noundef %20, i64 noundef %23, ptr noundef nonnull @.str.39, ptr noundef nonnull %16) #20
  store ptr %24, ptr %17, align 8, !tbaa !6
  %25 = load i64, ptr %21, align 8, !tbaa !68
  %26 = getelementptr inbounds nuw i8, ptr %17, i64 8
  store i64 %25, ptr %26, align 8, !tbaa !14
  %27 = getelementptr inbounds nuw i8, ptr %17, i64 16
  store i32 98, ptr %27, align 8, !tbaa !15
  store ptr %17, ptr %0, align 8, !tbaa !32
  %28 = getelementptr inbounds nuw i8, ptr %0, i64 40
  store i32 1, ptr %28, align 8, !tbaa !70
  ret ptr %24
}